target datalayout = "e-m:e-p270:32:32-p271:32:32-p272:64:64-i64:64-i128:128-f80:128-n8:16:32:64-S128"
target triple = "x86_64-pc-linux-gnu"

@hf_ua3g_icon_cmd_icon_number = internal global i32 0, align 4
@hf_ua3g_icon_cmd_segment = internal global i32 0, align 4
@.str.1218 = private unnamed_addr constant [8 x i8] c"Unknown\00", align 1
@.str.1248 = private unnamed_addr constant [20 x i8] c"Segment %d: %s (%d)\00", align 1

; Function Attrs: null_pointer_is_valid sspstrong uwtable
define internal void @decode_icon_cmd(ptr noundef %0, ptr noundef %1, ptr noundef %2, i32 noundef %3) #0 {
  %5 = alloca ptr, align 8
  %6 = alloca ptr, align 8
  %7 = alloca ptr, align 8
  %8 = alloca i32, align 4
  %9 = alloca i8, align 1
  %10 = alloca i8, align 1
  %11 = alloca i8, align 1
  %12 = alloca i32, align 4
  %13 = alloca i32, align 4
  store ptr %0, ptr %5, align 8
  store ptr %1, ptr %6, align 8
  store ptr %2, ptr %7, align 8
  store i32 %3, ptr %8, align 4
  call void @llvm.lifetime.start.p0(i64 1, ptr %9) #8
  call void @llvm.lifetime.start.p0(i64 1, ptr %10) #8
  call void @llvm.lifetime.start.p0(i64 1, ptr %11) #8
  call void @llvm.lifetime.start.p0(i64 4, ptr %12) #8
  %14 = load ptr, ptr %5, align 8
  %15 = icmp ne ptr %14, null
  br i1 %15, label %17, label %16

16:                                               ; preds = %4
  store i32 1, ptr %13, align 4
  br label %66

17:                                               ; preds = %4
  %18 = load ptr, ptr %5, align 8
  %19 = load i32, ptr @hf_ua3g_icon_cmd_icon_number, align 4
  %20 = load ptr, ptr %6, align 8
  %21 = load i32, ptr %8, align 4
  %22 = call ptr @proto_tree_add_item(ptr noundef %18, i32 noundef %19, ptr noundef %20, i32 noundef %21, i32 noundef 1, i32 noundef 0)
  %23 = load ptr, ptr %6, align 8
  %24 = load i32, ptr %8, align 4
  %25 = add i32 %24, 1
  %26 = call zeroext i8 @tvb_get_uint8(ptr noundef %23, i32 noundef %25)
  store i8 %26, ptr %9, align 1
  %27 = load ptr, ptr %6, align 8
  %28 = load i32, ptr %8, align 4
  %29 = add i32 %28, 2
  %30 = call zeroext i8 @tvb_get_uint8(ptr noundef %27, i32 noundef %29)
  store i8 %30, ptr %10, align 1
  store i32 0, ptr %12, align 4
  br label %31

31:                                               ; preds = %62, %17
  %32 = load i32, ptr %12, align 4
  %33 = icmp slt i32 %32, 8
  br i1 %33, label %34, label %65

34:                                               ; preds = %31
  %35 = load i8, ptr %9, align 1
  %36 = zext i8 %35 to i32
  %37 = load i32, ptr %12, align 4
  %38 = ashr i32 %36, %37
  %39 = and i32 %38, 1
  %40 = mul i32 %39, 2
  %41 = load i8, ptr %10, align 1
  %42 = zext i8 %41 to i32
  %43 = load i32, ptr %12, align 4
  %44 = ashr i32 %42, %43
  %45 = and i32 %44, 1
  %46 = add i32 %40, %45
  %47 = trunc i32 %46 to i8
  store i8 %47, ptr %11, align 1
  %48 = load ptr, ptr %5, align 8
  %49 = load i32, ptr @hf_ua3g_icon_cmd_segment, align 4
  %50 = load ptr, ptr %6, align 8
  %51 = load i32, ptr %8, align 4
  %52 = add i32 %51, 1
  %53 = load i8, ptr %11, align 1
  %54 = zext i8 %53 to i32
  %55 = load i32, ptr %12, align 4
  %56 = load i8, ptr %11, align 1
  %57 = zext i8 %56 to i32
  %58 = call ptr @val_to_str_const(i32 noundef %57, ptr noundef @str_icon_cmd_state, ptr noundef @.str.1218)
  %59 = load i8, ptr %11, align 1
  %60 = zext i8 %59 to i32
  %61 = call ptr (ptr, i32, ptr, i32, i32, i32, ptr, ...) @proto_tree_add_uint_format(ptr noundef %48, i32 noundef %49, ptr noundef %50, i32 noundef %52, i32 noundef 2, i32 noundef %54, ptr noundef @.str.1248, i32 noundef %55, ptr noundef %58, i32 noundef %60)
  br label %62

62:                                               ; preds = %34
  %63 = load i32, ptr %12, align 4
  %64 = add i32 %63, 1
  store i32 %64, ptr %12, align 4
  br label %31, !llvm.loop !30

65:                                               ; preds = %31
  store i32 0, ptr %13, align 4
  br label %66

66:                                               ; preds = %65, %16
  call void @llvm.lifetime.end.p0(i64 4, ptr %12) #8
  call void @llvm.lifetime.end.p0(i64 1, ptr %11) #8
  call void @llvm.lifetime.end.p0(i64 1, ptr %10) #8
  call void @llvm.lifetime.end.p0(i64 1, ptr %9) #8
  %67 = load i32, ptr %13, align 4
  switch i32 %67, label %69 [
    i32 0, label %68
    i32 1, label %68
  ]

68:                                               ; preds = %66, %66
  ret void

69:                                               ; preds = %66
  unreachable
}