; Function Attrs: null_pointer_is_valid sspstrong uwtable
define internal fastcc void @decode_icon_cmd(ptr noundef %0, ptr noundef %1) unnamed_addr #0 {
  %.not = icmp eq ptr %0, null
  br i1 %.not, label %.loopexit, label %3

3:                                                ; preds = %2
  %4 = load i32, ptr @hf_ua3g_icon_cmd_icon_number, align 4
  %5 = tail call ptr @proto_tree_add_item(ptr noundef nonnull %0, i32 noundef %4, ptr noundef %1, i32 noundef 3, i32 noundef 1, i32 noundef 0)
  %6 = tail call zeroext i8 @tvb_get_uint8(ptr noundef %1, i32 noundef 4)
  %7 = tail call zeroext i8 @tvb_get_uint8(ptr noundef %1, i32 noundef 5)
  %8 = zext i8 %6 to i32
  %9 = zext i8 %7 to i32
  br label %10

10:                                               ; preds = %3, %10
  %.01 = phi i32 [ 0, %3 ], [ %20, %10 ]
  %11 = lshr i32 %8, %.01
  %12 = shl nuw nsw i32 %11, 1
  %13 = and i32 %12, 2
  %14 = lshr i32 %9, %.01
  %15 = and i32 %14, 1
  %16 = or disjoint i32 %13, %15
  %17 = load i32, ptr @hf_ua3g_icon_cmd_segment, align 4
  %18 = tail call ptr @val_to_str_const(i32 noundef %16, ptr noundef nonnull @str_icon_cmd_state, ptr noundef nonnull @.str.1218)
  %19 = tail call ptr (ptr, i32, ptr, i32, i32, i32, ptr, ...) @proto_tree_add_uint_format(ptr noundef nonnull %0, i32 noundef %17, ptr noundef %1, i32 noundef 4, i32 noundef 2, i32 noundef %16, ptr noundef nonnull @.str.1248, i32 noundef %.01, ptr noundef %18, i32 noundef %16)
  %20 = add nuw nsw i32 %.01, 1
  %exitcond.not = icmp eq i32 %20, 8
  br i1 %exitcond.not, label %.loopexit, label %10, !llvm.loop !31

.loopexit:                                        ; preds = %10, %2
  ret void
}